target datalayout = "e-m:e-p270:32:32-p271:32:32-p272:64:64-i64:64-i128:128-f80:128-n8:16:32:64-S128"
target triple = "x86_64-pc-linux-gnu"

%"struct.std::_Rb_tree_header" = type { %"struct.std::_Rb_tree_node_base", i64 }
%"struct.std::_Rb_tree_node_base" = type { i32, ptr, ptr, ptr }
%class.MLSceneGLSharedDataContext = type { %class.QGLWidget, ptr, %"class.std::map.16", ptr, i64, i64, i8, [7 x i8], %class.QTimer }
%class.QGLWidget = type { %class.QWidget }
%class.QWidget = type { %class.QObject, %class.QPaintDevice, ptr }
%class.QObject = type { ptr, %class.QScopedPointer }
%class.QScopedPointer = type { ptr }
%class.QPaintDevice = type { ptr, i16, ptr }
%"class.std::map.16" = type { %"class.std::_Rb_tree.17" }
%"class.std::_Rb_tree.17" = type { %"struct.std::_Rb_tree<int, std::pair<const int, vcg::QtThreadSafeGLMeshAttributesMultiViewerBOManager<CMeshO, QGLContext *, MLPerViewGLOptions> *>, std::_Select1st<std::pair<const int, vcg::QtThreadSafeGLMeshAttributesMultiViewerBOManager<CMeshO, QGLContext *, MLPerViewGLOptions> *>>, std::less<int>>::_Rb_tree_impl" }
%"struct.std::_Rb_tree<int, std::pair<const int, vcg::QtThreadSafeGLMeshAttributesMultiViewerBOManager<CMeshO, QGLContext *, MLPerViewGLOptions> *>, std::_Select1st<std::pair<const int, vcg::QtThreadSafeGLMeshAttributesMultiViewerBOManager<CMeshO, QGLContext *, MLPerViewGLOptions> *>>, std::less<int>>::_Rb_tree_impl" = type { %"struct.std::_Rb_tree_key_compare.21", %"struct.std::_Rb_tree_header" }
%"struct.std::_Rb_tree_key_compare.21" = type { %"struct.std::less.22" }
%"struct.std::less.22" = type { i8 }
%class.QTimer = type <{ %class.QObject, i32, i32, i32, i8, [3 x i8] }>
%"struct.std::_Rb_tree_node.151" = type { %"struct.std::_Rb_tree_node_base", %"struct.__gnu_cxx::__aligned_membuf.152" }
%"struct.__gnu_cxx::__aligned_membuf.152" = type { [16 x i8] }
%"struct.std::_Rb_tree_iterator.155" = type { ptr }
%"struct.std::pair.153" = type { i32, ptr }

; Function Attrs: mustprogress nounwind uwtable
define linkonce_odr noundef ptr @_ZN9__gnu_cxx16__aligned_membufISt4pairIKiPN3vcg48QtThreadSafeGLMeshAttributesMultiViewerBOManagerI6CMeshOP10QGLContext18MLPerViewGLOptionsEEEE7_M_addrEv(ptr noundef nonnull align 8 dereferenceable(16) %0) #4 comdat align 2 {
  %2 = alloca ptr, align 8
  store ptr %0, ptr %2, align 8
  %3 = load ptr, ptr %2, align 8
  %4 = getelementptr inbounds %"struct.__gnu_cxx::__aligned_membuf.152", ptr %3, i32 0, i32 0
  ret ptr %4
}

; Function Attrs: mustprogress nounwind uwtable
define linkonce_odr noundef ptr @_ZN9__gnu_cxx16__aligned_membufISt4pairIKiPN3vcg48QtThreadSafeGLMeshAttributesMultiViewerBOManagerI6CMeshOP10QGLContext18MLPerViewGLOptionsEEEE6_M_ptrEv(ptr noundef nonnull align 8 dereferenceable(16) %0) #4 comdat align 2 {
  %2 = alloca ptr, align 8
  store ptr %0, ptr %2, align 8
  %3 = load ptr, ptr %2, align 8
  %4 = call noundef ptr @_ZN9__gnu_cxx16__aligned_membufISt4pairIKiPN3vcg48QtThreadSafeGLMeshAttributesMultiViewerBOManagerI6CMeshOP10QGLContext18MLPerViewGLOptionsEEEE7_M_addrEv(ptr noundef nonnull align 8 dereferenceable(16) %3) #3
  ret ptr %4
}

; Function Attrs: mustprogress nounwind uwtable
define linkonce_odr void @_ZNSt17_Rb_tree_iteratorISt4pairIKiPN3vcg48QtThreadSafeGLMeshAttributesMultiViewerBOManagerI6CMeshOP10QGLContext18MLPerViewGLOptionsEEEEC2EPSt18_Rb_tree_node_base(ptr noundef nonnull align 8 dereferenceable(8) %0, ptr noundef %1) unnamed_addr #4 comdat align 2 {
  %3 = alloca ptr, align 8
  %4 = alloca ptr, align 8
  store ptr %0, ptr %3, align 8
  store ptr %1, ptr %4, align 8
  %5 = load ptr, ptr %3, align 8
  %6 = getelementptr inbounds %"struct.std::_Rb_tree_iterator.155", ptr %5, i32 0, i32 0
  %7 = load ptr, ptr %4, align 8
  store ptr %7, ptr %6, align 8
  ret void
}

; Function Attrs: mustprogress nounwind uwtable
define linkonce_odr noundef ptr @_ZNSt13_Rb_tree_nodeISt4pairIKiPN3vcg48QtThreadSafeGLMeshAttributesMultiViewerBOManagerI6CMeshOP10QGLContext18MLPerViewGLOptionsEEEE9_M_valptrEv(ptr noundef nonnull align 8 dereferenceable(48) %0) #4 comdat align 2 {
  %2 = alloca ptr, align 8
  store ptr %0, ptr %2, align 8
  %3 = load ptr, ptr %2, align 8
  %4 = getelementptr inbounds %"struct.std::_Rb_tree_node.151", ptr %3, i32 0, i32 1
  %5 = call noundef ptr @_ZN9__gnu_cxx16__aligned_membufISt4pairIKiPN3vcg48QtThreadSafeGLMeshAttributesMultiViewerBOManagerI6CMeshOP10QGLContext18MLPerViewGLOptionsEEEE6_M_ptrEv(ptr noundef nonnull align 8 dereferenceable(16) %4) #3
  ret ptr %5
}

; Function Attrs: mustprogress nounwind uwtable
define linkonce_odr ptr @_ZNSt8_Rb_treeIiSt4pairIKiPN3vcg48QtThreadSafeGLMeshAttributesMultiViewerBOManagerI6CMeshOP10QGLContext18MLPerViewGLOptionsEEESt10_Select1stISA_ESt4lessIiESaISA_EE3endEv(ptr noundef nonnull align 8 dereferenceable(48) %0) #4 comdat align 2 {
  %2 = alloca %"struct.std::_Rb_tree_iterator.155", align 8
  %3 = alloca ptr, align 8
  store ptr %0, ptr %3, align 8
  %4 = load ptr, ptr %3, align 8
  %5 = getelementptr inbounds %"class.std::_Rb_tree.17", ptr %4, i32 0, i32 0
  %6 = getelementptr inbounds i8, ptr %5, i64 8
  %7 = getelementptr inbounds %"struct.std::_Rb_tree_header", ptr %6, i32 0, i32 0
  call void @_ZNSt17_Rb_tree_iteratorISt4pairIKiPN3vcg48QtThreadSafeGLMeshAttributesMultiViewerBOManagerI6CMeshOP10QGLContext18MLPerViewGLOptionsEEEEC2EPSt18_Rb_tree_node_base(ptr noundef nonnull align 8 dereferenceable(8) %2, ptr noundef %7) #3
  %8 = getelementptr inbounds %"struct.std::_Rb_tree_iterator.155", ptr %2, i32 0, i32 0
  %9 = load ptr, ptr %8, align 8
  ret ptr %9
}

; Function Attrs: mustprogress nounwind uwtable
define linkonce_odr ptr @_ZNSt8_Rb_treeIiSt4pairIKiPN3vcg48QtThreadSafeGLMeshAttributesMultiViewerBOManagerI6CMeshOP10QGLContext18MLPerViewGLOptionsEEESt10_Select1stISA_ESt4lessIiESaISA_EE5beginEv(ptr noundef nonnull align 8 dereferenceable(48) %0) #4 comdat align 2 {
  %2 = alloca %"struct.std::_Rb_tree_iterator.155", align 8
  %3 = alloca ptr, align 8
  store ptr %0, ptr %3, align 8
  %4 = load ptr, ptr %3, align 8
  %5 = getelementptr inbounds %"class.std::_Rb_tree.17", ptr %4, i32 0, i32 0
  %6 = getelementptr inbounds i8, ptr %5, i64 8
  %7 = getelementptr inbounds %"struct.std::_Rb_tree_header", ptr %6, i32 0, i32 0
  %8 = getelementptr inbounds %"struct.std::_Rb_tree_node_base", ptr %7, i32 0, i32 2
  %9 = load ptr, ptr %8, align 8
  call void @_ZNSt17_Rb_tree_iteratorISt4pairIKiPN3vcg48QtThreadSafeGLMeshAttributesMultiViewerBOManagerI6CMeshOP10QGLContext18MLPerViewGLOptionsEEEEC2EPSt18_Rb_tree_node_base(ptr noundef nonnull align 8 dereferenceable(8) %2, ptr noundef %9) #3
  %10 = getelementptr inbounds %"struct.std::_Rb_tree_iterator.155", ptr %2, i32 0, i32 0
  %11 = load ptr, ptr %10, align 8
  ret ptr %11
}

; Function Attrs: mustprogress nounwind uwtable
define linkonce_odr noundef nonnull align 8 dereferenceable(8) ptr @_ZNSt17_Rb_tree_iteratorISt4pairIKiPN3vcg48QtThreadSafeGLMeshAttributesMultiViewerBOManagerI6CMeshOP10QGLContext18MLPerViewGLOptionsEEEEppEv(ptr noundef nonnull align 8 dereferenceable(8) %0) #4 comdat align 2 {
  %2 = alloca ptr, align 8
  store ptr %0, ptr %2, align 8
  %3 = load ptr, ptr %2, align 8
  %4 = getelementptr inbounds %"struct.std::_Rb_tree_iterator.155", ptr %3, i32 0, i32 0
  %5 = load ptr, ptr %4, align 8
  %6 = call noundef ptr @_ZSt18_Rb_tree_incrementPSt18_Rb_tree_node_base(ptr noundef %5) #23
  %7 = getelementptr inbounds %"struct.std::_Rb_tree_iterator.155", ptr %3, i32 0, i32 0
  store ptr %6, ptr %7, align 8
  ret ptr %3
}

; Function Attrs: mustprogress nounwind uwtable
define linkonce_odr noundef ptr @_ZNKSt17_Rb_tree_iteratorISt4pairIKiPN3vcg48QtThreadSafeGLMeshAttributesMultiViewerBOManagerI6CMeshOP10QGLContext18MLPerViewGLOptionsEEEEptEv(ptr noundef nonnull align 8 dereferenceable(8) %0) #4 comdat align 2 {
  %2 = alloca ptr, align 8
  store ptr %0, ptr %2, align 8
  %3 = load ptr, ptr %2, align 8
  %4 = getelementptr inbounds %"struct.std::_Rb_tree_iterator.155", ptr %3, i32 0, i32 0
  %5 = load ptr, ptr %4, align 8
  %6 = call noundef ptr @_ZNSt13_Rb_tree_nodeISt4pairIKiPN3vcg48QtThreadSafeGLMeshAttributesMultiViewerBOManagerI6CMeshOP10QGLContext18MLPerViewGLOptionsEEEE9_M_valptrEv(ptr noundef nonnull align 8 dereferenceable(48) %5)
  ret ptr %6
}

; Function Attrs: mustprogress nounwind uwtable
define linkonce_odr noundef zeroext i1 @_ZStneRKSt17_Rb_tree_iteratorISt4pairIKiPN3vcg48QtThreadSafeGLMeshAttributesMultiViewerBOManagerI6CMeshOP10QGLContext18MLPerViewGLOptionsEEEESD_(ptr noundef nonnull align 8 dereferenceable(8) %0, ptr noundef nonnull align 8 dereferenceable(8) %1) #4 comdat {
  %3 = alloca ptr, align 8
  %4 = alloca ptr, align 8
  store ptr %0, ptr %3, align 8
  store ptr %1, ptr %4, align 8
  %5 = load ptr, ptr %3, align 8
  %6 = getelementptr inbounds %"struct.std::_Rb_tree_iterator.155", ptr %5, i32 0, i32 0
  %7 = load ptr, ptr %6, align 8
  %8 = load ptr, ptr %4, align 8
  %9 = getelementptr inbounds %"struct.std::_Rb_tree_iterator.155", ptr %8, i32 0, i32 0
  %10 = load ptr, ptr %9, align 8
  %11 = icmp ne ptr %7, %10
  ret i1 %11
}

; Function Attrs: mustprogress nounwind uwtable
define linkonce_odr ptr @_ZNSt3mapIiPN3vcg48QtThreadSafeGLMeshAttributesMultiViewerBOManagerI6CMeshOP10QGLContext18MLPerViewGLOptionsEESt4lessIiESaISt4pairIKiS7_EEE3endEv(ptr noundef nonnull align 8 dereferenceable(48) %0) #4 comdat align 2 {
  %2 = alloca %"struct.std::_Rb_tree_iterator.155", align 8
  %3 = alloca ptr, align 8
  store ptr %0, ptr %3, align 8
  %4 = load ptr, ptr %3, align 8
  %5 = getelementptr inbounds %"class.std::map.16", ptr %4, i32 0, i32 0
  %6 = call ptr @_ZNSt8_Rb_treeIiSt4pairIKiPN3vcg48QtThreadSafeGLMeshAttributesMultiViewerBOManagerI6CMeshOP10QGLContext18MLPerViewGLOptionsEEESt10_Select1stISA_ESt4lessIiESaISA_EE3endEv(ptr noundef nonnull align 8 dereferenceable(48) %5) #3
  %7 = getelementptr inbounds %"struct.std::_Rb_tree_iterator.155", ptr %2, i32 0, i32 0
  store ptr %6, ptr %7, align 8
  %8 = getelementptr inbounds %"struct.std::_Rb_tree_iterator.155", ptr %2, i32 0, i32 0
  %9 = load ptr, ptr %8, align 8
  ret ptr %9
}

; Function Attrs: mustprogress nounwind uwtable
define linkonce_odr ptr @_ZNSt3mapIiPN3vcg48QtThreadSafeGLMeshAttributesMultiViewerBOManagerI6CMeshOP10QGLContext18MLPerViewGLOptionsEESt4lessIiESaISt4pairIKiS7_EEE5beginEv(ptr noundef nonnull align 8 dereferenceable(48) %0) #4 comdat align 2 {
  %2 = alloca %"struct.std::_Rb_tree_iterator.155", align 8
  %3 = alloca ptr, align 8
  store ptr %0, ptr %3, align 8
  %4 = load ptr, ptr %3, align 8
  %5 = getelementptr inbounds %"class.std::map.16", ptr %4, i32 0, i32 0
  %6 = call ptr @_ZNSt8_Rb_treeIiSt4pairIKiPN3vcg48QtThreadSafeGLMeshAttributesMultiViewerBOManagerI6CMeshOP10QGLContext18MLPerViewGLOptionsEEESt10_Select1stISA_ESt4lessIiESaISA_EE5beginEv(ptr noundef nonnull align 8 dereferenceable(48) %5) #3
  %7 = getelementptr inbounds %"struct.std::_Rb_tree_iterator.155", ptr %2, i32 0, i32 0
  store ptr %6, ptr %7, align 8
  %8 = getelementptr inbounds %"struct.std::_Rb_tree_iterator.155", ptr %2, i32 0, i32 0
  %9 = load ptr, ptr %8, align 8
  ret ptr %9
}

; Function Attrs: mustprogress uwtable
define void @_ZN26MLSceneGLSharedDataContext7addViewEP10QGLContextR15MLRenderingData(ptr noundef nonnull align 8 dereferenceable(168) %0, ptr noundef %1, ptr noundef nonnull align 8 dereferenceable(40) %2) #5 align 2 {
  %4 = alloca ptr, align 8
  %5 = alloca ptr, align 8
  %6 = alloca ptr, align 8
  %7 = alloca %"struct.std::_Rb_tree_iterator.155", align 8
  %8 = alloca %"struct.std::_Rb_tree_iterator.155", align 8
  %9 = alloca ptr, align 8
  store ptr %0, ptr %4, align 8
  store ptr %1, ptr %5, align 8
  store ptr %2, ptr %6, align 8
  %10 = load ptr, ptr %4, align 8
  %11 = getelementptr inbounds %class.MLSceneGLSharedDataContext, ptr %10, i32 0, i32 2
  %12 = call ptr @_ZNSt3mapIiPN3vcg48QtThreadSafeGLMeshAttributesMultiViewerBOManagerI6CMeshOP10QGLContext18MLPerViewGLOptionsEESt4lessIiESaISt4pairIKiS7_EEE5beginEv(ptr noundef nonnull align 8 dereferenceable(48) %11) #3
  %13 = getelementptr inbounds %"struct.std::_Rb_tree_iterator.155", ptr %7, i32 0, i32 0
  store ptr %12, ptr %13, align 8
  br label %14

14:                                               ; preds = %43, %3
  %15 = getelementptr inbounds %class.MLSceneGLSharedDataContext, ptr %10, i32 0, i32 2
  %16 = call ptr @_ZNSt3mapIiPN3vcg48QtThreadSafeGLMeshAttributesMultiViewerBOManagerI6CMeshOP10QGLContext18MLPerViewGLOptionsEESt4lessIiESaISt4pairIKiS7_EEE3endEv(ptr noundef nonnull align 8 dereferenceable(48) %15) #3
  %17 = getelementptr inbounds %"struct.std::_Rb_tree_iterator.155", ptr %8, i32 0, i32 0
  store ptr %16, ptr %17, align 8
  %18 = call noundef zeroext i1 @_ZStneRKSt17_Rb_tree_iteratorISt4pairIKiPN3vcg48QtThreadSafeGLMeshAttributesMultiViewerBOManagerI6CMeshOP10QGLContext18MLPerViewGLOptionsEEEESD_(ptr noundef nonnull align 8 dereferenceable(8) %7, ptr noundef nonnull align 8 dereferenceable(8) %8) #3
  br i1 %18, label %19, label %45

19:                                               ; preds = %14
  %20 = getelementptr inbounds %class.MLSceneGLSharedDataContext, ptr %10, i32 0, i32 1
  %21 = load ptr, ptr %20, align 8
  %22 = call noundef ptr @_ZNKSt17_Rb_tree_iteratorISt4pairIKiPN3vcg48QtThreadSafeGLMeshAttributesMultiViewerBOManagerI6CMeshOP10QGLContext18MLPerViewGLOptionsEEEEptEv(ptr noundef nonnull align 8 dereferenceable(8) %7) #3
  %23 = getelementptr inbounds %"struct.std::pair.153", ptr %22, i32 0, i32 0
  %24 = load i32, ptr %23, align 8
  %25 = call noundef ptr @_ZN12MeshDocument7getMeshEj(ptr noundef nonnull align 8 dereferenceable(192) %21, i32 noundef %24)
  store ptr %25, ptr %9, align 8
  %26 = load ptr, ptr %9, align 8
  %27 = icmp ne ptr %26, null
  br i1 %27, label %28, label %42

28:                                               ; preds = %19
  %29 = load ptr, ptr %9, align 8
  %30 = load ptr, ptr %6, align 8
  %31 = getelementptr inbounds %class.MLSceneGLSharedDataContext, ptr %10, i32 0, i32 5
  %32 = load i64, ptr %31, align 8
  call void @_ZN29MLPoliciesStandAloneFunctions36suggestedDefaultPerViewRenderingDataEP9MeshModelR15MLRenderingDatam(ptr noundef %29, ptr noundef nonnull align 8 dereferenceable(40) %30, i64 noundef %32)
  %33 = call noundef ptr @_ZNKSt17_Rb_tree_iteratorISt4pairIKiPN3vcg48QtThreadSafeGLMeshAttributesMultiViewerBOManagerI6CMeshOP10QGLContext18MLPerViewGLOptionsEEEEptEv(ptr noundef nonnull align 8 dereferenceable(8) %7) #3
  %34 = getelementptr inbounds %"struct.std::pair.153", ptr %33, i32 0, i32 0
  %35 = load i32, ptr %34, align 8
  %36 = load ptr, ptr %5, align 8
  %37 = load ptr, ptr %6, align 8
  call void @_ZN26MLSceneGLSharedDataContext27setRenderingDataPerMeshViewEiP10QGLContextRK15MLRenderingData(ptr noundef nonnull align 8 dereferenceable(168) %10, i32 noundef %35, ptr noundef %36, ptr noundef nonnull align 8 dereferenceable(40) %37)
  %38 = call noundef ptr @_ZNKSt17_Rb_tree_iteratorISt4pairIKiPN3vcg48QtThreadSafeGLMeshAttributesMultiViewerBOManagerI6CMeshOP10QGLContext18MLPerViewGLOptionsEEEEptEv(ptr noundef nonnull align 8 dereferenceable(8) %7) #3
  %39 = getelementptr inbounds %"struct.std::pair.153", ptr %38, i32 0, i32 0
  %40 = load i32, ptr %39, align 8
  %41 = call noundef zeroext i1 @_ZN26MLSceneGLSharedDataContext13manageBuffersEi(ptr noundef nonnull align 8 dereferenceable(168) %10, i32 noundef %40)
  br label %42

42:                                               ; preds = %28, %19
  br label %43

43:                                               ; preds = %42
  %44 = call noundef nonnull align 8 dereferenceable(8) ptr @_ZNSt17_Rb_tree_iteratorISt4pairIKiPN3vcg48QtThreadSafeGLMeshAttributesMultiViewerBOManagerI6CMeshOP10QGLContext18MLPerViewGLOptionsEEEEppEv(ptr noundef nonnull align 8 dereferenceable(8) %7) #3
  br label %14, !llvm.loop !117

45:                                               ; preds = %14
  ret void
}