; Function Attrs: mustprogress uwtable
define void @_ZN26MLSceneGLSharedDataContext7addViewEP10QGLContextR15MLRenderingData(ptr noundef nonnull align 8 dereferenceable(168) %0, ptr noundef %1, ptr noundef nonnull align 8 dereferenceable(40) %2) local_unnamed_addr #9 align 2 {
  %4 = getelementptr inbounds i8, ptr %0, i64 80
  %5 = load ptr, ptr %4, align 8
  %6 = getelementptr inbounds i8, ptr %0, i64 64
  %.not1112 = icmp eq ptr %5, %6
  br i1 %.not1112, label %._crit_edge, label %.lr.ph

.lr.ph:                                           ; preds = %3
  %7 = getelementptr inbounds i8, ptr %0, i64 48
  %8 = getelementptr inbounds i8, ptr %0, i64 120
  br label %9

9:                                                ; preds = %.lr.ph, %19
  %.sroa.06.013 = phi ptr [ %5, %.lr.ph ], [ %20, %19 ]
  %10 = load ptr, ptr %7, align 8
  %11 = getelementptr inbounds i8, ptr %.sroa.06.013, i64 32
  %12 = load i32, ptr %11, align 8
  %13 = tail call noundef ptr @_ZN12MeshDocument7getMeshEj(ptr noundef nonnull align 8 dereferenceable(192) %10, i32 noundef %12)
  %.not = icmp eq ptr %13, null
  br i1 %.not, label %19, label %14

14:                                               ; preds = %9
  %15 = load i64, ptr %8, align 8
  tail call void @_ZN29MLPoliciesStandAloneFunctions36suggestedDefaultPerViewRenderingDataEP9MeshModelR15MLRenderingDatam(ptr noundef nonnull %13, ptr noundef nonnull align 8 dereferenceable(40) %2, i64 noundef %15)
  %16 = load i32, ptr %11, align 8
  tail call void @_ZN26MLSceneGLSharedDataContext27setRenderingDataPerMeshViewEiP10QGLContextRK15MLRenderingData(ptr noundef nonnull align 8 dereferenceable(168) %0, i32 noundef %16, ptr noundef %1, ptr noundef nonnull align 8 dereferenceable(40) %2)
  %17 = load i32, ptr %11, align 8
  %18 = tail call noundef zeroext i1 @_ZN26MLSceneGLSharedDataContext13manageBuffersEi(ptr noundef nonnull align 8 dereferenceable(168) %0, i32 noundef %17)
  br label %19

19:                                               ; preds = %9, %14
  %20 = tail call noundef ptr @_ZSt18_Rb_tree_incrementPSt18_Rb_tree_node_base(ptr noundef nonnull %.sroa.06.013) #27
  %.not11 = icmp eq ptr %20, %6
  br i1 %.not11, label %._crit_edge, label %9, !llvm.loop !227

._crit_edge:                                      ; preds = %19, %3
  ret void
}